target datalayout = "e-m:e-p270:32:32-p271:32:32-p272:64:64-i64:64-i128:128-f80:128-n8:16:32:64-S128"
target triple = "x86_64-pc-linux-gnu"

@.str = private unnamed_addr constant [30 x i8] c"Assertion %s failed at %s:%d\0A\00", align 1
@.str.2 = private unnamed_addr constant [20 x i8] c"libswscale/output.c\00", align 1
@.str.5 = private unnamed_addr constant [18 x i8] c"output_bits == 16\00", align 1

; Function Attrs: alwaysinline nounwind willreturn memory(none) uwtable
define internal zeroext i16 @av_bswap16(i16 noundef zeroext %0) #6 {
  %2 = alloca i16, align 2
  store i16 %0, ptr %2, align 2, !tbaa !49
  %3 = load i16, ptr %2, align 2, !tbaa !49
  %4 = zext i16 %3 to i32
  %5 = ashr i32 %4, 8
  %6 = load i16, ptr %2, align 2, !tbaa !49
  %7 = zext i16 %6 to i32
  %8 = shl i32 %7, 8
  %9 = or i32 %5, %8
  %10 = trunc i32 %9 to i16
  store i16 %10, ptr %2, align 2, !tbaa !49
  %11 = load i16, ptr %2, align 2, !tbaa !49
  ret i16 %11
}

; Function Attrs: alwaysinline nounwind willreturn memory(none) uwtable
define internal signext i16 @av_clip_int16_c(i32 noundef %0) #6 {
  %2 = alloca i16, align 2
  %3 = alloca i32, align 4
  store i32 %0, ptr %3, align 4, !tbaa !30
  %4 = load i32, ptr %3, align 4, !tbaa !30
  %5 = add i32 %4, 32768
  %6 = and i32 %5, -65536
  %7 = icmp ne i32 %6, 0
  br i1 %7, label %8, label %13

8:                                                ; preds = %1
  %9 = load i32, ptr %3, align 4, !tbaa !30
  %10 = ashr i32 %9, 31
  %11 = xor i32 %10, 32767
  %12 = trunc i32 %11 to i16
  store i16 %12, ptr %2, align 2
  br label %16

13:                                               ; preds = %1
  %14 = load i32, ptr %3, align 4, !tbaa !30
  %15 = trunc i32 %14 to i16
  store i16 %15, ptr %2, align 2
  br label %16

16:                                               ; preds = %13, %8
  %17 = load i16, ptr %2, align 2
  ret i16 %17
}

; Function Attrs: alwaysinline nounwind uwtable
define internal void @yuv2planeX_16_c_template(ptr noundef %0, i32 noundef %1, ptr noundef %2, ptr noundef %3, i32 noundef %4, i32 noundef %5, i32 noundef %6) #3 {
  %8 = alloca ptr, align 8
  %9 = alloca i32, align 4
  %10 = alloca ptr, align 8
  %11 = alloca ptr, align 8
  %12 = alloca i32, align 4
  %13 = alloca i32, align 4
  %14 = alloca i32, align 4
  %15 = alloca i32, align 4
  %16 = alloca i32, align 4
  %17 = alloca i32, align 4
  %18 = alloca i32, align 4
  store ptr %0, ptr %8, align 8, !tbaa !45
  store i32 %1, ptr %9, align 4, !tbaa !30
  store ptr %2, ptr %10, align 8, !tbaa !59
  store ptr %3, ptr %11, align 8, !tbaa !45
  store i32 %4, ptr %12, align 4, !tbaa !30
  store i32 %5, ptr %13, align 4, !tbaa !30
  store i32 %6, ptr %14, align 4, !tbaa !30
  call void @llvm.lifetime.start.p0(i64 4, ptr %15) #8
  call void @llvm.lifetime.start.p0(i64 4, ptr %16) #8
  store i32 15, ptr %16, align 4, !tbaa !30
  br label %19

19:                                               ; preds = %7
  %20 = load i32, ptr %14, align 4, !tbaa !30
  %21 = icmp eq i32 %20, 16
  br i1 %21, label %23, label %22

22:                                               ; preds = %19
  call void (ptr, i32, ptr, ...) @av_log(ptr noundef null, i32 noundef 0, ptr noundef @.str, ptr noundef @.str.5, ptr noundef @.str.2, i32 noundef 170)
  call void @abort() #9
  unreachable

23:                                               ; preds = %19
  br label %24

24:                                               ; preds = %23
  br label %25

25:                                               ; preds = %24
  store i32 0, ptr %15, align 4, !tbaa !30
  br label %26

26:                                               ; preds = %91, %25
  %27 = load i32, ptr %15, align 4, !tbaa !30
  %28 = load i32, ptr %12, align 4, !tbaa !30
  %29 = icmp slt i32 %27, %28
  br i1 %29, label %30, label %94

30:                                               ; preds = %26
  call void @llvm.lifetime.start.p0(i64 4, ptr %17) #8
  %31 = load i32, ptr %16, align 4, !tbaa !30
  %32 = sub nsw i32 %31, 1
  %33 = shl i32 1, %32
  store i32 %33, ptr %17, align 4, !tbaa !30
  call void @llvm.lifetime.start.p0(i64 4, ptr %18) #8
  %34 = load i32, ptr %17, align 4, !tbaa !30
  %35 = sub nsw i32 %34, 1073741824
  store i32 %35, ptr %17, align 4, !tbaa !30
  store i32 0, ptr %18, align 4, !tbaa !30
  br label %36

36:                                               ; preds = %59, %30
  %37 = load i32, ptr %18, align 4, !tbaa !30
  %38 = load i32, ptr %9, align 4, !tbaa !30
  %39 = icmp slt i32 %37, %38
  br i1 %39, label %40, label %62

40:                                               ; preds = %36
  %41 = load ptr, ptr %10, align 8, !tbaa !59
  %42 = load i32, ptr %18, align 4, !tbaa !30
  %43 = sext i32 %42 to i64
  %44 = getelementptr inbounds ptr, ptr %41, i64 %43
  %45 = load ptr, ptr %44, align 8, !tbaa !61
  %46 = load i32, ptr %15, align 4, !tbaa !30
  %47 = sext i32 %46 to i64
  %48 = getelementptr inbounds i32, ptr %45, i64 %47
  %49 = load i32, ptr %48, align 4, !tbaa !30
  %50 = load ptr, ptr %8, align 8, !tbaa !45
  %51 = load i32, ptr %18, align 4, !tbaa !30
  %52 = sext i32 %51 to i64
  %53 = getelementptr inbounds i16, ptr %50, i64 %52
  %54 = load i16, ptr %53, align 2, !tbaa !49
  %55 = sext i16 %54 to i32
  %56 = mul i32 %49, %55
  %57 = load i32, ptr %17, align 4, !tbaa !30
  %58 = add i32 %57, %56
  store i32 %58, ptr %17, align 4, !tbaa !30
  br label %59

59:                                               ; preds = %40
  %60 = load i32, ptr %18, align 4, !tbaa !30
  %61 = add nsw i32 %60, 1
  store i32 %61, ptr %18, align 4, !tbaa !30
  br label %36, !llvm.loop !111

62:                                               ; preds = %36
  %63 = load i32, ptr %13, align 4, !tbaa !30
  %64 = icmp ne i32 %63, 0
  br i1 %64, label %65, label %78

65:                                               ; preds = %62
  %66 = load i32, ptr %17, align 4, !tbaa !30
  %67 = load i32, ptr %16, align 4, !tbaa !30
  %68 = ashr i32 %66, %67
  %69 = call signext i16 @av_clip_int16_c(i32 noundef %68) #10
  %70 = sext i16 %69 to i32
  %71 = add nsw i32 32768, %70
  %72 = trunc i32 %71 to i16
  %73 = call zeroext i16 @av_bswap16(i16 noundef zeroext %72) #10
  %74 = load ptr, ptr %11, align 8, !tbaa !45
  %75 = load i32, ptr %15, align 4, !tbaa !30
  %76 = sext i32 %75 to i64
  %77 = getelementptr inbounds i16, ptr %74, i64 %76
  store i16 %73, ptr %77, align 1, !tbaa !51
  br label %90

78:                                               ; preds = %62
  %79 = load i32, ptr %17, align 4, !tbaa !30
  %80 = load i32, ptr %16, align 4, !tbaa !30
  %81 = ashr i32 %79, %80
  %82 = call signext i16 @av_clip_int16_c(i32 noundef %81) #10
  %83 = sext i16 %82 to i32
  %84 = add nsw i32 32768, %83
  %85 = trunc i32 %84 to i16
  %86 = load ptr, ptr %11, align 8, !tbaa !45
  %87 = load i32, ptr %15, align 4, !tbaa !30
  %88 = sext i32 %87 to i64
  %89 = getelementptr inbounds i16, ptr %86, i64 %88
  store i16 %85, ptr %89, align 1, !tbaa !51
  br label %90

90:                                               ; preds = %78, %65
  call void @llvm.lifetime.end.p0(i64 4, ptr %18) #8
  call void @llvm.lifetime.end.p0(i64 4, ptr %17) #8
  br label %91

91:                                               ; preds = %90
  %92 = load i32, ptr %15, align 4, !tbaa !30
  %93 = add nsw i32 %92, 1
  store i32 %93, ptr %15, align 4, !tbaa !30
  br label %26, !llvm.loop !112

94:                                               ; preds = %26
  call void @llvm.lifetime.end.p0(i64 4, ptr %16) #8
  call void @llvm.lifetime.end.p0(i64 4, ptr %15) #8
  ret void
}

; Function Attrs: nounwind uwtable
define internal void @yuv2planeX_16BE_c(ptr noundef %0, i32 noundef %1, ptr noundef %2, ptr noundef %3, i32 noundef %4, ptr noundef %5, i32 noundef %6) #4 {
  %8 = alloca ptr, align 8
  %9 = alloca i32, align 4
  %10 = alloca ptr, align 8
  %11 = alloca ptr, align 8
  %12 = alloca i32, align 4
  %13 = alloca ptr, align 8
  %14 = alloca i32, align 4
  store ptr %0, ptr %8, align 8, !tbaa !45
  store i32 %1, ptr %9, align 4, !tbaa !30
  store ptr %2, ptr %10, align 8, !tbaa !47
  store ptr %3, ptr %11, align 8, !tbaa !46
  store i32 %4, ptr %12, align 4, !tbaa !30
  store ptr %5, ptr %13, align 8, !tbaa !46
  store i32 %6, ptr %14, align 4, !tbaa !30
  %15 = load ptr, ptr %8, align 8, !tbaa !45
  %16 = load i32, ptr %9, align 4, !tbaa !30
  %17 = load ptr, ptr %10, align 8, !tbaa !47
  %18 = load ptr, ptr %11, align 8, !tbaa !46
  %19 = load i32, ptr %12, align 4, !tbaa !30
  call void @yuv2planeX_16_c_template(ptr noundef %15, i32 noundef %16, ptr noundef %17, ptr noundef %18, i32 noundef %19, i32 noundef 1, i32 noundef 16)
  ret void
}